target datalayout = "e-m:e-p270:32:32-p271:32:32-p272:64:64-i64:64-i128:128-f80:128-n8:16:32:64-S128"
target triple = "x86_64-pc-linux-gnu"

%struct.Type_ = type { i32, ptr, ptr, ptr, %union.anon, ptr, ptr, %union.anon.1 }
%union.anon = type { ptr }
%union.anon.1 = type { %struct.TypeFunction }
%struct.TypeFunction = type { ptr, ptr, ptr }
%struct.TypeArray = type { ptr, i32 }

; Function Attrs: nounwind uwtable
define internal i32 @type_array_is_equivalent(ptr noundef %0, ptr noundef %1, ptr noundef %2, i1 noundef zeroext %3) #0 {
  %5 = alloca i32, align 4
  %6 = alloca ptr, align 8
  %7 = alloca ptr, align 8
  %8 = alloca ptr, align 8
  %9 = alloca i8, align 1
  %10 = alloca i32, align 4
  store ptr %0, ptr %6, align 8
  store ptr %1, ptr %7, align 8
  store ptr %2, ptr %8, align 8
  %11 = zext i1 %3 to i8
  store i8 %11, ptr %9, align 1
  %12 = load ptr, ptr %8, align 8
  %13 = getelementptr inbounds %struct.Type_, ptr %12, i32 0, i32 0
  %14 = load i32, ptr %13, align 8
  store i32 %14, ptr %10, align 4
  %15 = load ptr, ptr %7, align 8
  %16 = getelementptr inbounds %struct.Type_, ptr %15, i32 0, i32 0
  %17 = load i32, ptr %16, align 8
  switch i32 %17, label %126 [
    i32 36, label %18
    i32 33, label %35
    i32 38, label %71
    i32 37, label %90
  ]

18:                                               ; preds = %4
  %19 = load i32, ptr %10, align 4
  %20 = icmp ne i32 %19, 33
  br i1 %20, label %21, label %22

21:                                               ; preds = %18
  store i32 0, ptr %5, align 4
  br label %127

22:                                               ; preds = %18
  %23 = load ptr, ptr %6, align 8
  %24 = load ptr, ptr %7, align 8
  %25 = getelementptr inbounds %struct.Type_, ptr %24, i32 0, i32 7
  %26 = getelementptr inbounds %struct.TypeArray, ptr %25, i32 0, i32 0
  %27 = load ptr, ptr %26, align 8
  %28 = load ptr, ptr %8, align 8
  %29 = getelementptr inbounds %struct.Type_, ptr %28, i32 0, i32 7
  %30 = getelementptr inbounds %struct.TypeArray, ptr %29, i32 0, i32 0
  %31 = load ptr, ptr %30, align 8
  %32 = load i8, ptr %9, align 1
  %33 = trunc i8 %32 to i1
  %34 = call i32 @type_array_element_is_equivalent(ptr noundef %23, ptr noundef %27, ptr noundef %31, i1 noundef zeroext %33)
  store i32 %34, ptr %5, align 4
  br label %127

35:                                               ; preds = %4
  %36 = load i32, ptr %10, align 4
  %37 = icmp ne i32 %36, 33
  br i1 %37, label %38, label %42

38:                                               ; preds = %35
  %39 = load i32, ptr %10, align 4
  %40 = icmp ne i32 %39, 36
  br i1 %40, label %41, label %42

41:                                               ; preds = %38
  store i32 0, ptr %5, align 4
  br label %127

42:                                               ; preds = %38, %35
  %43 = load ptr, ptr %8, align 8
  %44 = getelementptr inbounds %struct.Type_, ptr %43, i32 0, i32 0
  %45 = load i32, ptr %44, align 8
  %46 = icmp eq i32 %45, 33
  br i1 %46, label %47, label %58

47:                                               ; preds = %42
  %48 = load ptr, ptr %7, align 8
  %49 = getelementptr inbounds %struct.Type_, ptr %48, i32 0, i32 7
  %50 = getelementptr inbounds %struct.TypeArray, ptr %49, i32 0, i32 1
  %51 = load i32, ptr %50, align 8
  %52 = load ptr, ptr %8, align 8
  %53 = getelementptr inbounds %struct.Type_, ptr %52, i32 0, i32 7
  %54 = getelementptr inbounds %struct.TypeArray, ptr %53, i32 0, i32 1
  %55 = load i32, ptr %54, align 8
  %56 = icmp ne i32 %51, %55
  br i1 %56, label %57, label %58

57:                                               ; preds = %47
  store i32 0, ptr %5, align 4
  br label %127

58:                                               ; preds = %47, %42
  %59 = load ptr, ptr %6, align 8
  %60 = load ptr, ptr %7, align 8
  %61 = getelementptr inbounds %struct.Type_, ptr %60, i32 0, i32 7
  %62 = getelementptr inbounds %struct.TypeArray, ptr %61, i32 0, i32 0
  %63 = load ptr, ptr %62, align 8
  %64 = load ptr, ptr %8, align 8
  %65 = getelementptr inbounds %struct.Type_, ptr %64, i32 0, i32 7
  %66 = getelementptr inbounds %struct.TypeArray, ptr %65, i32 0, i32 0
  %67 = load ptr, ptr %66, align 8
  %68 = load i8, ptr %9, align 1
  %69 = trunc i8 %68 to i1
  %70 = call i32 @type_array_element_is_equivalent(ptr noundef %59, ptr noundef %63, ptr noundef %67, i1 noundef zeroext %69)
  store i32 %70, ptr %5, align 4
  br label %127

71:                                               ; preds = %4
  %72 = load ptr, ptr %8, align 8
  %73 = getelementptr inbounds %struct.Type_, ptr %72, i32 0, i32 0
  %74 = load i32, ptr %73, align 8
  %75 = icmp ne i32 %74, 37
  br i1 %75, label %76, label %77

76:                                               ; preds = %71
  store i32 0, ptr %5, align 4
  br label %127

77:                                               ; preds = %71
  %78 = load ptr, ptr %6, align 8
  %79 = load ptr, ptr %7, align 8
  %80 = getelementptr inbounds %struct.Type_, ptr %79, i32 0, i32 7
  %81 = getelementptr inbounds %struct.TypeArray, ptr %80, i32 0, i32 0
  %82 = load ptr, ptr %81, align 8
  %83 = load ptr, ptr %8, align 8
  %84 = getelementptr inbounds %struct.Type_, ptr %83, i32 0, i32 7
  %85 = getelementptr inbounds %struct.TypeArray, ptr %84, i32 0, i32 0
  %86 = load ptr, ptr %85, align 8
  %87 = load i8, ptr %9, align 1
  %88 = trunc i8 %87 to i1
  %89 = call i32 @type_array_element_is_equivalent(ptr noundef %78, ptr noundef %82, ptr noundef %86, i1 noundef zeroext %88)
  store i32 %89, ptr %5, align 4
  br label %127

90:                                               ; preds = %4
  %91 = load i32, ptr %10, align 4
  %92 = icmp ne i32 %91, 37
  br i1 %92, label %93, label %97

93:                                               ; preds = %90
  %94 = load i32, ptr %10, align 4
  %95 = icmp ne i32 %94, 38
  br i1 %95, label %96, label %97

96:                                               ; preds = %93
  store i32 0, ptr %5, align 4
  br label %127

97:                                               ; preds = %93, %90
  %98 = load ptr, ptr %8, align 8
  %99 = getelementptr inbounds %struct.Type_, ptr %98, i32 0, i32 0
  %100 = load i32, ptr %99, align 8
  %101 = icmp eq i32 %100, 37
  br i1 %101, label %102, label %113

102:                                              ; preds = %97
  %103 = load ptr, ptr %7, align 8
  %104 = getelementptr inbounds %struct.Type_, ptr %103, i32 0, i32 7
  %105 = getelementptr inbounds %struct.TypeArray, ptr %104, i32 0, i32 1
  %106 = load i32, ptr %105, align 8
  %107 = load ptr, ptr %8, align 8
  %108 = getelementptr inbounds %struct.Type_, ptr %107, i32 0, i32 7
  %109 = getelementptr inbounds %struct.TypeArray, ptr %108, i32 0, i32 1
  %110 = load i32, ptr %109, align 8
  %111 = icmp ne i32 %106, %110
  br i1 %111, label %112, label %113

112:                                              ; preds = %102
  store i32 0, ptr %5, align 4
  br label %127

113:                                              ; preds = %102, %97
  %114 = load ptr, ptr %6, align 8
  %115 = load ptr, ptr %7, align 8
  %116 = getelementptr inbounds %struct.Type_, ptr %115, i32 0, i32 7
  %117 = getelementptr inbounds %struct.TypeArray, ptr %116, i32 0, i32 0
  %118 = load ptr, ptr %117, align 8
  %119 = load ptr, ptr %8, align 8
  %120 = getelementptr inbounds %struct.Type_, ptr %119, i32 0, i32 7
  %121 = getelementptr inbounds %struct.TypeArray, ptr %120, i32 0, i32 0
  %122 = load ptr, ptr %121, align 8
  %123 = load i8, ptr %9, align 1
  %124 = trunc i8 %123 to i1
  %125 = call i32 @type_array_element_is_equivalent(ptr noundef %114, ptr noundef %118, ptr noundef %122, i1 noundef zeroext %124)
  store i32 %125, ptr %5, align 4
  br label %127

126:                                              ; preds = %4
  store i32 0, ptr %5, align 4
  br label %127

127:                                              ; preds = %126, %113, %112, %96, %77, %76, %58, %57, %41, %22, %21
  %128 = load i32, ptr %5, align 4
  ret i32 %128
}