; Function Attrs: nounwind uwtable
define internal fastcc i32 @type_array_is_equivalent(ptr noundef %0, ptr nocapture noundef readonly %1, ptr nocapture noundef readonly %2, i1 noundef zeroext %3) unnamed_addr #0 {
  %5 = load i32, ptr %2, align 8
  %6 = load i32, ptr %1, align 8
  switch i32 %6, label %29 [
    i32 36, label %7
    i32 33, label %8
    i32 38, label %14
    i32 37, label %15
  ]

7:                                                ; preds = %4
  %.not35 = icmp eq i32 %5, 33
  br i1 %.not35, label %.sink.split, label %29

8:                                                ; preds = %4
  switch i32 %5, label %29 [
    i32 33, label %9
    i32 36, label %.sink.split
  ]

9:                                                ; preds = %8
  %10 = getelementptr inbounds i8, ptr %1, i64 64
  %11 = load i32, ptr %10, align 8
  %12 = getelementptr inbounds i8, ptr %2, i64 64
  %13 = load i32, ptr %12, align 8
  %.not34 = icmp eq i32 %11, %13
  br i1 %.not34, label %.sink.split, label %29

14:                                               ; preds = %4
  %.not33 = icmp eq i32 %5, 37
  br i1 %.not33, label %.sink.split, label %29

15:                                               ; preds = %4
  %16 = add i32 %5, -39
  %or.cond3 = icmp ult i32 %16, -2
  br i1 %or.cond3, label %29, label %17

17:                                               ; preds = %15
  %18 = icmp eq i32 %5, 37
  br i1 %18, label %19, label %.sink.split

19:                                               ; preds = %17
  %20 = getelementptr inbounds i8, ptr %1, i64 64
  %21 = load i32, ptr %20, align 8
  %22 = getelementptr inbounds i8, ptr %2, i64 64
  %23 = load i32, ptr %22, align 8
  %.not = icmp eq i32 %21, %23
  br i1 %.not, label %.sink.split, label %29

.sink.split:                                      ; preds = %17, %19, %14, %9, %8, %7
  %24 = getelementptr inbounds i8, ptr %1, i64 56
  %25 = load ptr, ptr %24, align 8
  %26 = getelementptr inbounds i8, ptr %2, i64 56
  %27 = load ptr, ptr %26, align 8
  %28 = tail call i32 @type_array_element_is_equivalent(ptr noundef %0, ptr noundef %25, ptr noundef %27, i1 noundef zeroext %3)
  br label %29

29:                                               ; preds = %.sink.split, %4, %19, %15, %14, %9, %8, %7
  %.0 = phi i32 [ 0, %7 ], [ 0, %8 ], [ 0, %9 ], [ 0, %14 ], [ 0, %15 ], [ 0, %19 ], [ 0, %4 ], [ %28, %.sink.split ]
  ret i32 %.0
}